; Function Attrs: mustprogress nounwind uwtable
define dso_local void @_ZN4llvm9DIArgList7untrackEv(ptr noundef nonnull align 8 dereferenceable(176) %0) local_unnamed_addr #0 align 2 {
  %2 = getelementptr inbounds nuw i8, ptr %0, i64 128
  %3 = load ptr, ptr %2, align 8
  %4 = tail call noundef i64 @_ZNK4llvm15SmallVectorBaseIjE4sizeEv(ptr noundef nonnull align 8 dereferenceable(16) %2) #24
  %5 = getelementptr inbounds ptr, ptr %3, i64 %4
  %.not12 = icmp eq i64 %4, 0
  br i1 %.not12, label %._crit_edge, label %.lr.ph

.lr.ph:                                           ; preds = %1, %8
  %.013 = phi ptr [ %9, %8 ], [ %3, %1 ]
  %6 = load ptr, ptr %.013, align 8
  %.not11 = icmp eq ptr %6, null
  br i1 %.not11, label %8, label %7

7:                                                ; preds = %.lr.ph
  tail call void @_ZN4llvm16MetadataTracking7untrackEPvRNS_8MetadataE(ptr noundef nonnull %.013, ptr noundef nonnull align 4 dereferenceable(8) %6) #24
  br label %8

8:                                                ; preds = %.lr.ph, %7
  %9 = getelementptr inbounds i8, ptr %.013, i64 8
  %.not = icmp eq ptr %9, %5
  br i1 %.not, label %._crit_edge, label %.lr.ph

._crit_edge:                                      ; preds = %8, %1
  ret void
}